GHIDRA DISASSEMBLY OUTPUT
====================================================================================================
Program  : crackme
Language : x86:LE:64:default
Compiler : gcc
ImageBase: 00100000
====================================================================================================


====================================================================================================
FUNCTION: _DT_INIT
ADDRESS : 00101000
====================================================================================================

00101000           f3 0f 1e fa              ENDBR64
00101004           48 83 ec 08              SUB RSP,0x8
00101008           48 8b 05 d9 2f 00 00     MOV RAX,qword ptr [0x00103fe8]
0010100f           48 85 c0                 TEST RAX,RAX
00101012           74 02                    JZ 0x00101016
00101014           ff d0                    CALL RAX
00101016           48 83 c4 08              ADD RSP,0x8
0010101a           c3                       RET

====================================================================================================
FUNCTION: FUN_00101020
ADDRESS : 00101020
====================================================================================================

00101020           ff 35 72 2f 00 00        PUSH qword ptr [0x00103f98]
00101026           ff 25 74 2f 00 00        JMP qword ptr [0x00103fa0]

====================================================================================================
FUNCTION: __cxa_finalize
ADDRESS : 00101090
====================================================================================================

00101090           f3 0f 1e fa              ENDBR64
00101094           ff 25 5e 2f 00 00        JMP qword ptr [0x00103ff8]

====================================================================================================
FUNCTION: puts
ADDRESS : 001010a0
====================================================================================================

001010a0           f3 0f 1e fa              ENDBR64
001010a4           ff 25 fe 2e 00 00        JMP qword ptr [0x00103fa8]

====================================================================================================
FUNCTION: __stack_chk_fail
ADDRESS : 001010b0
====================================================================================================

001010b0           f3 0f 1e fa              ENDBR64
001010b4           ff 25 f6 2e 00 00        JMP qword ptr [0x00103fb0]

====================================================================================================
FUNCTION: strcmp
ADDRESS : 001010c0
====================================================================================================

001010c0           f3 0f 1e fa              ENDBR64
001010c4           ff 25 ee 2e 00 00        JMP qword ptr [0x00103fb8]

====================================================================================================
FUNCTION: __printf_chk
ADDRESS : 001010d0
====================================================================================================

001010d0           f3 0f 1e fa              ENDBR64
001010d4           ff 25 e6 2e 00 00        JMP qword ptr [0x00103fc0]

====================================================================================================
FUNCTION: __isoc99_scanf
ADDRESS : 001010e0
====================================================================================================

001010e0           f3 0f 1e fa              ENDBR64
001010e4           ff 25 de 2e 00 00        JMP qword ptr [0x00103fc8]

====================================================================================================
FUNCTION: exit
ADDRESS : 001010f0
====================================================================================================

001010f0           f3 0f 1e fa              ENDBR64
001010f4           ff 25 d6 2e 00 00        JMP qword ptr [0x00103fd0]

====================================================================================================
FUNCTION: FUN_00101100
ADDRESS : 00101100
====================================================================================================

00101100           f3 0f 1e fa              ENDBR64
00101104           48 83 ec 18              SUB RSP,0x18
00101108           48 8b 3e                 MOV RDI,qword ptr [RSI]
0010110b           64 48 8b 04 25 28 00 00 00 MOV RAX,qword ptr FS:[0x28]
00101114           48 89 44 24 08           MOV qword ptr [RSP + 0x8],RAX
00101119           31 c0                    XOR EAX,EAX
0010111b           e8 50 01 00 00           CALL 0x00101270
00101120           48 8d 35 81 0f 00 00     LEA RSI,[0x1020a8]
00101127           bf 02 00 00 00           MOV EDI,0x2
0010112c           31 c0                    XOR EAX,EAX
0010112e           e8 9d ff ff ff           CALL 0x001010d0
00101133           48 8d 3d 87 0f 00 00     LEA RDI,[0x1020c1]
0010113a           31 c0                    XOR EAX,EAX
0010113c           48 8d 74 24 04           LEA RSI,[RSP + 0x4]
00101141           e8 9a ff ff ff           CALL 0x001010e0
00101146           8b 7c 24 04              MOV EDI,dword ptr [RSP + 0x4]
0010114a           e8 31 02 00 00           CALL 0x00101380
0010114f           48 8b 44 24 08           MOV RAX,qword ptr [RSP + 0x8]
00101154           64 48 2b 04 25 28 00 00 00 SUB RAX,qword ptr FS:[0x28]
0010115d           75 07                    JNZ 0x00101166
0010115f           31 c0                    XOR EAX,EAX
00101161           48 83 c4 18              ADD RSP,0x18
00101165           c3                       RET
00101166           e8 45 ff ff ff           CALL 0x001010b0

====================================================================================================
FUNCTION: entry
ADDRESS : 00101170
====================================================================================================

00101170           f3 0f 1e fa              ENDBR64
00101174           31 ed                    XOR EBP,EBP
00101176           49 89 d1                 MOV R9,RDX
00101179           5e                       POP RSI
0010117a           48 89 e2                 MOV RDX,RSP
0010117d           48 83 e4 f0              AND RSP,-0x10
00101181           50                       PUSH RAX
00101182           54                       PUSH RSP
00101183           45 31 c0                 XOR R8D,R8D
00101186           31 c9                    XOR ECX,ECX
00101188           48 8d 3d 71 ff ff ff     LEA RDI,[0x101100]
0010118f           ff 15 43 2e 00 00        CALL qword ptr [0x00103fd8]
00101195           f4                       HLT

====================================================================================================
FUNCTION: FUN_001011a0
ADDRESS : 001011a0
====================================================================================================

001011a0           48 8d 3d 69 2e 00 00     LEA RDI,[0x104010]
001011a7           48 8d 05 62 2e 00 00     LEA RAX,[0x104010]
001011ae           48 39 f8                 CMP RAX,RDI
001011b1           74 15                    JZ 0x001011c8
001011b3           48 8b 05 26 2e 00 00     MOV RAX,qword ptr [0x00103fe0]
001011ba           48 85 c0                 TEST RAX,RAX
001011bd           74 09                    JZ 0x001011c8
001011bf           ff e0                    JMP RAX
001011c8           c3                       RET

====================================================================================================
FUNCTION: FUN_001011d0
ADDRESS : 001011d0
====================================================================================================

001011d0           48 8d 3d 39 2e 00 00     LEA RDI,[0x104010]
001011d7           48 8d 35 32 2e 00 00     LEA RSI,[0x104010]
001011de           48 29 fe                 SUB RSI,RDI
001011e1           48 89 f0                 MOV RAX,RSI
001011e4           48 c1 ee 3f              SHR RSI,0x3f
001011e8           48 c1 f8 03              SAR RAX,0x3
001011ec           48 01 c6                 ADD RSI,RAX
001011ef           48 d1 fe                 SAR RSI,0x1
001011f2           74 14                    JZ 0x00101208
001011f4           48 8b 05 f5 2d 00 00     MOV RAX,qword ptr [0x00103ff0]
001011fb           48 85 c0                 TEST RAX,RAX
001011fe           74 08                    JZ 0x00101208
00101200           ff e0                    JMP RAX
00101208           c3                       RET

====================================================================================================
FUNCTION: _FINI_0
ADDRESS : 00101210
====================================================================================================

00101210           f3 0f 1e fa              ENDBR64
00101214           80 3d f5 2d 00 00 00     CMP byte ptr [0x00104010],0x0
0010121b           75 2b                    JNZ 0x00101248
0010121d           55                       PUSH RBP
0010121e           48 83 3d d2 2d 00 00 00  CMP qword ptr [0x00103ff8],0x0
00101226           48 89 e5                 MOV RBP,RSP
00101229           74 0c                    JZ 0x00101237
0010122b           48 8b 3d d6 2d 00 00     MOV RDI,qword ptr [0x00104008]
00101232           e8 59 fe ff ff           CALL 0x00101090
00101237           e8 64 ff ff ff           CALL 0x001011a0
0010123c           c6 05 cd 2d 00 00 01     MOV byte ptr [0x00104010],0x1
00101243           5d                       POP RBP
00101244           c3                       RET
00101248           c3                       RET

====================================================================================================
FUNCTION: _INIT_0
ADDRESS : 00101250
====================================================================================================

00101250           f3 0f 1e fa              ENDBR64
00101254           e9 77 ff ff ff           JMP 0x001011d0

====================================================================================================
FUNCTION: FUN_00101260
ADDRESS : 00101260
====================================================================================================

00101260           f3 0f 1e fa              ENDBR64
00101264           0f af fe                 IMUL EDI,ESI
00101267           8d 04 17                 LEA EAX,[RDI + RDX*0x1]
0010126a           83 f0 5a                 XOR EAX,0x5a
0010126d           c3                       RET

====================================================================================================
FUNCTION: FUN_00101270
ADDRESS : 00101270
====================================================================================================

00101270           f3 0f 1e fa              ENDBR64
00101274           48 83 ec 18              SUB RSP,0x18
00101278           48 89 fa                 MOV RDX,RDI
0010127b           64 48 8b 04 25 28 00 00 00 MOV RAX,qword ptr FS:[0x28]
00101284           48 89 44 24 08           MOV qword ptr [RSP + 0x8],RAX
00101289           31 c0                    XOR EAX,EAX
0010128b           0f b6 07                 MOVZX EAX,byte ptr [RDI]
0010128e           84 c0                    TEST AL,AL
00101290           74 17                    JZ 0x001012a9
00101292           66 0f 1f 44 00 00        NOP word ptr [RAX + RAX*0x1]
00101298           48 83 c7 01              ADD RDI,0x1
0010129c           3c 2f                    CMP AL,0x2f
0010129e           0f b6 07                 MOVZX EAX,byte ptr [RDI]
001012a1           48 0f 44 d7              CMOVZ RDX,RDI
001012a5           84 c0                    TEST AL,AL
001012a7           75 ef                    JNZ 0x00101298
001012a9           48 b8 63 72 61 63 6b 6d 65 00 MOV RAX,0x656d6b63617263
001012b3           48 89 e6                 MOV RSI,RSP
001012b6           48 89 d7                 MOV RDI,RDX
001012b9           48 89 04 24              MOV qword ptr [RSP],RAX
001012bd           e8 fe fd ff ff           CALL 0x001010c0
001012c2           85 c0                    TEST EAX,EAX
001012c4           75 1a                    JNZ 0x001012e0
001012c6           48 8b 44 24 08           MOV RAX,qword ptr [RSP + 0x8]
001012cb           64 48 2b 04 25 28 00 00 00 SUB RAX,qword ptr FS:[0x28]
001012d4           75 1d                    JNZ 0x001012f3
001012d6           48 83 c4 18              ADD RSP,0x18
001012da           c3                       RET
001012e0           48 8d 3d 21 0d 00 00     LEA RDI,[0x102008]
001012e7           e8 b4 fd ff ff           CALL 0x001010a0
001012ec           31 ff                    XOR EDI,EDI
001012ee           e8 fd fd ff ff           CALL 0x001010f0
001012f3           e8 b8 fd ff ff           CALL 0x001010b0

====================================================================================================
FUNCTION: FUN_00101300
ADDRESS : 00101300
====================================================================================================

00101300           f3 0f 1e fa              ENDBR64
00101304           48 83 ec 08              SUB RSP,0x8
00101308           ba 3d 00 00 00           MOV EDX,0x3d
0010130d           bf 02 00 00 00           MOV EDI,0x2
00101312           31 c0                    XOR EAX,EAX
00101314           48 8d 35 66 0d 00 00     LEA RSI,[0x102081]
0010131b           e8 b0 fd ff ff           CALL 0x001010d0
00101320           ba 58 00 00 00           MOV EDX,0x58
00101325           31 c0                    XOR EAX,EAX
00101327           48 83 c4 08              ADD RSP,0x8
0010132b           48 8d 35 fe 0c 00 00     LEA RSI,[0x102030]
00101332           bf 02 00 00 00           MOV EDI,0x2
00101337           e9 94 fd ff ff           JMP 0x001010d0

====================================================================================================
FUNCTION: FUN_00101340
ADDRESS : 00101340
====================================================================================================

00101340           f3 0f 1e fa              ENDBR64
00101344           48 8d 3d 0d 0d 00 00     LEA RDI,[0x102058]
0010134b           e9 50 fd ff ff           JMP 0x001010a0

====================================================================================================
FUNCTION: FUN_00101350
ADDRESS : 00101350
====================================================================================================

00101350           f3 0f 1e fa              ENDBR64
00101354           0f b6 06                 MOVZX EAX,byte ptr [RSI]
00101357           84 c0                    TEST AL,AL
00101359           74 19                    JZ 0x00101374
0010135b           31 c9                    XOR ECX,ECX
0010135d           0f 1f 00                 NOP dword ptr [RAX]
00101360           31 d0                    XOR EAX,EDX
00101362           88 04 0f                 MOV byte ptr [RDI + RCX*0x1],AL
00101365           48 83 c1 01              ADD RCX,0x1
00101369           0f b6 04 0e              MOVZX EAX,byte ptr [RSI + RCX*0x1]
0010136d           84 c0                    TEST AL,AL
0010136f           75 ef                    JNZ 0x00101360
00101371           48 01 cf                 ADD RDI,RCX
00101374           c6 07 00                 MOV byte ptr [RDI],0x0
00101377           c3                       RET

====================================================================================================
FUNCTION: FUN_00101380
ADDRESS : 00101380
====================================================================================================

00101380           f3 0f 1e fa              ENDBR64
00101384           48 81 ec 98 00 00 00     SUB RSP,0x98
0010138b           64 48 8b 04 25 28 00 00 00 MOV RAX,qword ptr FS:[0x28]
00101394           48 89 84 24 88 00 00 00  MOV qword ptr [RSP + 0x88],RAX
0010139c           31 c0                    XOR EAX,EAX
0010139e           81 ff 42 60 00 00        CMP EDI,0x6042
001013a4           75 62                    JNZ 0x00101408
001013a6           b8 29 00 00 00           MOV EAX,0x29
001013ab           31 d2                    XOR EDX,EDX
001013ad           48 89 e1                 MOV RCX,RSP
001013b0           48 8d 35 29 0d 00 00     LEA RSI,[0x1020e0]
001013b7           66 0f 1f 84 00 00 00 00 00 NOP word ptr [RAX + RAX*0x1]
001013c0           83 f0 5a                 XOR EAX,0x5a
001013c3           88 04 11                 MOV byte ptr [RCX + RDX*0x1],AL
001013c6           48 83 c2 01              ADD RDX,0x1
001013ca           0f b6 04 16              MOVZX EAX,byte ptr [RSI + RDX*0x1]
001013ce           84 c0                    TEST AL,AL
001013d0           75 ee                    JNZ 0x001013c0
001013d2           c6 04 14 00              MOV byte ptr [RSP + RDX*0x1],0x0
001013d6           48 8d 35 c1 0c 00 00     LEA RSI,[0x10209e]
001013dd           48 89 ca                 MOV RDX,RCX
001013e0           bf 02 00 00 00           MOV EDI,0x2
001013e5           e8 e6 fc ff ff           CALL 0x001010d0
001013ea           48 8b 84 24 88 00 00 00  MOV RAX,qword ptr [RSP + 0x88]
001013f2           64 48 2b 04 25 28 00 00 00 SUB RAX,qword ptr FS:[0x28]
001013fb           75 31                    JNZ 0x0010142e
001013fd           48 81 c4 98 00 00 00     ADD RSP,0x98
00101404           c3                       RET
00101408           48 8b 84 24 88 00 00 00  MOV RAX,qword ptr [RSP + 0x88]
00101410           64 48 2b 04 25 28 00 00 00 SUB RAX,qword ptr FS:[0x28]
00101419           75 13                    JNZ 0x0010142e
0010141b           48 8d 3d 36 0c 00 00     LEA RDI,[0x102058]
00101422           48 81 c4 98 00 00 00     ADD RSP,0x98
00101429           e9 72 fc ff ff           JMP 0x001010a0
0010142e           e8 7d fc ff ff           CALL 0x001010b0

====================================================================================================
FUNCTION: _DT_FINI
ADDRESS : 00101434
====================================================================================================

00101434           f3 0f 1e fa              ENDBR64
00101438           48 83 ec 08              SUB RSP,0x8
0010143c           48 83 c4 08              ADD RSP,0x8
00101440           c3                       RET

====================================================================================================
EXTRACTED FUNCTIONS: 22
====================================================================================================
